target datalayout = "e-m:e-p270:32:32-p271:32:32-p272:64:64-i64:64-i128:128-f80:128-n8:16:32:64-S128"
target triple = "x86_64-pc-linux-gnu"

%"struct.faiss::IndexIVFPQFastScan" = type { %"struct.faiss::IndexIVFFastScan", %"struct.faiss::ProductQuantizer", i32, %"struct.faiss::AlignedTable" }
%"struct.faiss::IndexIVFFastScan" = type { %"struct.faiss::IndexIVF.base", i32, i64, i64, i64, i64, i32, i32, i32, i64, ptr }
%"struct.faiss::IndexIVF.base" = type <{ %"struct.faiss::Index.base", [4 x i8], %"struct.faiss::IndexIVFInterface", ptr, i8, [7 x i8], i64, i32, i32, %"struct.faiss::DirectMap", i8 }>
%"struct.faiss::Index.base" = type <{ ptr, i32, [4 x i8], i64, i8, i8, [2 x i8], i32, float }>
%"struct.faiss::IndexIVFInterface" = type { ptr, %"struct.faiss::Level1Quantizer", i64, i64 }
%"struct.faiss::Level1Quantizer" = type { ptr, i64, i8, i8, %"struct.faiss::ClusteringParameters", ptr }
%"struct.faiss::ClusteringParameters" = type { i32, i32, i8, i8, i8, i8, i8, i32, i32, i32, i64 }
%"struct.faiss::DirectMap" = type { i32, %"class.std::vector", %"class.std::unordered_map" }
%"class.std::vector" = type { %"struct.std::_Vector_base" }
%"struct.std::_Vector_base" = type { %"struct.std::_Vector_base<long, std::allocator<long>>::_Vector_impl" }
%"struct.std::_Vector_base<long, std::allocator<long>>::_Vector_impl" = type { %"struct.std::_Vector_base<long, std::allocator<long>>::_Vector_impl_data" }
%"struct.std::_Vector_base<long, std::allocator<long>>::_Vector_impl_data" = type { ptr, ptr, ptr }
%"class.std::unordered_map" = type { %"class.std::_Hashtable" }
%"class.std::_Hashtable" = type { ptr, i64, %"struct.std::__detail::_Hash_node_base", i64, %"struct.std::__detail::_Prime_rehash_policy", ptr }
%"struct.std::__detail::_Hash_node_base" = type { ptr }
%"struct.std::__detail::_Prime_rehash_policy" = type { float, i64 }
%"struct.faiss::ProductQuantizer" = type { %"struct.faiss::Quantizer", i64, i64, i64, i64, i8, i32, %"struct.faiss::ClusteringParameters", ptr, %"class.std::vector.5", %"class.std::vector.5", %"class.std::vector.5", %"class.std::vector.5" }
%"struct.faiss::Quantizer" = type { ptr, i64, i64 }
%"class.std::vector.5" = type { %"struct.std::_Vector_base.6" }
%"struct.std::_Vector_base.6" = type { %"struct.std::_Vector_base<float, std::allocator<float>>::_Vector_impl" }
%"struct.std::_Vector_base<float, std::allocator<float>>::_Vector_impl" = type { %"struct.std::_Vector_base<float, std::allocator<float>>::_Vector_impl_data" }
%"struct.std::_Vector_base<float, std::allocator<float>>::_Vector_impl_data" = type { ptr, ptr, ptr }
%"struct.faiss::AlignedTable" = type { %"struct.faiss::AlignedTableTightAlloc", i64 }
%"struct.faiss::AlignedTableTightAlloc" = type { ptr, i64 }
%"struct.faiss::IndexIVF" = type <{ %"struct.faiss::Index.base", [4 x i8], %"struct.faiss::IndexIVFInterface", ptr, i8, [7 x i8], i64, i32, i32, %"struct.faiss::DirectMap", i8, [7 x i8] }>
%"struct.faiss::Index" = type <{ ptr, i32, [4 x i8], i64, i8, i8, [2 x i8], i32, float, [4 x i8] }>

; Function Attrs: mustprogress uwtable
define void @_ZN5faiss18IndexIVFPQFastScan16precompute_tableEv(ptr noundef nonnull align 8 dereferenceable(568) %0) #2 align 2 {
  %2 = alloca ptr, align 8
  store ptr %0, ptr %2, align 8
  %3 = load ptr, ptr %2, align 8
  %4 = getelementptr inbounds %"struct.faiss::IndexIVFPQFastScan", ptr %3, i32 0, i32 2
  %5 = getelementptr inbounds i8, ptr %3, i64 48
  %6 = getelementptr inbounds %"struct.faiss::Level1Quantizer", ptr %5, i32 0, i32 0
  %7 = load ptr, ptr %6, align 8
  %8 = getelementptr inbounds %"struct.faiss::IndexIVFPQFastScan", ptr %3, i32 0, i32 1
  %9 = getelementptr inbounds %"struct.faiss::IndexIVFPQFastScan", ptr %3, i32 0, i32 3
  %10 = getelementptr inbounds %"struct.faiss::IndexIVF", ptr %3, i32 0, i32 10
  %11 = load i8, ptr %10, align 8
  %12 = trunc i8 %11 to i1
  %13 = getelementptr inbounds %"struct.faiss::Index", ptr %3, i32 0, i32 4
  %14 = load i8, ptr %13, align 8
  %15 = trunc i8 %14 to i1
  call void @_ZN5faiss34initialize_IVFPQ_precomputed_tableERiPKNS_5IndexERKNS_16ProductQuantizerERNS_12AlignedTableIfLi32EEEbb(ptr noundef nonnull align 4 dereferenceable(4) %4, ptr noundef %7, ptr noundef nonnull align 8 dereferenceable(208) %8, ptr noundef nonnull align 8 dereferenceable(24) %9, i1 noundef zeroext %12, i1 noundef zeroext %15)
  ret void
}

; Function Attrs: mustprogress uwtable
define void @_ZN5faiss18IndexIVFPQFastScan13train_encoderElPKfPKl(ptr noundef nonnull align 8 dereferenceable(568) %0, i64 noundef %1, ptr noundef %2, ptr noundef %3) unnamed_addr #2 align 2 {
  %5 = alloca ptr, align 8
  %6 = alloca i64, align 8
  %7 = alloca ptr, align 8
  %8 = alloca ptr, align 8
  store ptr %0, ptr %5, align 8
  store i64 %1, ptr %6, align 8
  store ptr %2, ptr %7, align 8
  store ptr %3, ptr %8, align 8
  %9 = load ptr, ptr %5, align 8
  %10 = getelementptr inbounds %"struct.faiss::Index", ptr %9, i32 0, i32 4
  %11 = load i8, ptr %10, align 8
  %12 = trunc i8 %11 to i1
  %13 = getelementptr inbounds %"struct.faiss::IndexIVFPQFastScan", ptr %9, i32 0, i32 1
  %14 = getelementptr inbounds %"struct.faiss::ProductQuantizer", ptr %13, i32 0, i32 5
  %15 = zext i1 %12 to i8
  store i8 %15, ptr %14, align 8
  %16 = getelementptr inbounds %"struct.faiss::IndexIVFPQFastScan", ptr %9, i32 0, i32 1
  %17 = load i64, ptr %6, align 8
  %18 = load ptr, ptr %7, align 8
  call void @_ZN5faiss16ProductQuantizer5trainEmPKf(ptr noundef nonnull align 8 dereferenceable(208) %16, i64 noundef %17, ptr noundef %18)
  %19 = getelementptr inbounds %"struct.faiss::IndexIVF", ptr %9, i32 0, i32 10
  %20 = load i8, ptr %19, align 8
  %21 = trunc i8 %20 to i1
  br i1 %21, label %22, label %27

22:                                               ; preds = %4
  %23 = getelementptr inbounds %"struct.faiss::Index", ptr %9, i32 0, i32 7
  %24 = load i32, ptr %23, align 4
  %25 = icmp eq i32 %24, 1
  br i1 %25, label %26, label %27

26:                                               ; preds = %22
  call void @_ZN5faiss18IndexIVFPQFastScan16precompute_tableEv(ptr noundef nonnull align 8 dereferenceable(568) %9)
  br label %27

27:                                               ; preds = %26, %22, %4
  ret void
}