; Function Attrs: mustprogress uwtable
define void @_ZN5faiss18IndexIVFPQFastScan13train_encoderElPKfPKl(ptr noundef nonnull align 8 dereferenceable(568) %0, i64 noundef %1, ptr noundef %2, ptr nocapture readnone %3) unnamed_addr #2 align 2 {
  %5 = getelementptr inbounds i8, ptr %0, i64 24
  %6 = load i8, ptr %5, align 8
  %7 = and i8 %6, 1
  %8 = getelementptr inbounds i8, ptr %0, i64 328
  %9 = getelementptr inbounds i8, ptr %0, i64 384
  store i8 %7, ptr %9, align 8
  tail call void @_ZN5faiss16ProductQuantizer5trainEmPKf(ptr noundef nonnull align 8 dereferenceable(208) %8, i64 noundef %1, ptr noundef %2)
  %10 = getelementptr inbounds i8, ptr %0, i64 256
  %11 = load i8, ptr %10, align 8
  %12 = and i8 %11, 1
  %.not = icmp ne i8 %12, 0
  %13 = getelementptr inbounds i8, ptr %0, i64 28
  %14 = load i32, ptr %13, align 4
  %15 = icmp eq i32 %14, 1
  %or.cond = select i1 %.not, i1 %15, i1 false
  br i1 %or.cond, label %16, label %24

16:                                               ; preds = %4
  %17 = getelementptr inbounds i8, ptr %0, i64 536
  %18 = getelementptr inbounds i8, ptr %0, i64 48
  %19 = load ptr, ptr %18, align 8
  %20 = getelementptr inbounds i8, ptr %0, i64 544
  %21 = load i8, ptr %5, align 8
  %22 = and i8 %21, 1
  %23 = icmp ne i8 %22, 0
  tail call void @_ZN5faiss34initialize_IVFPQ_precomputed_tableERiPKNS_5IndexERKNS_16ProductQuantizerERNS_12AlignedTableIfLi32EEEbb(ptr noundef nonnull align 4 dereferenceable(4) %17, ptr noundef %19, ptr noundef nonnull align 8 dereferenceable(208) %8, ptr noundef nonnull align 8 dereferenceable(24) %20, i1 noundef zeroext true, i1 noundef zeroext %23)
  br label %24

24:                                               ; preds = %16, %4
  ret void
}